; Function Attrs: mustprogress uwtable
define hidden noundef zeroext i1 @_ZN6Assimp13glTF2Exporter12GetMatVolumeERK10aiMaterialRN5glTF214MaterialVolumeE(ptr noundef nonnull align 8 dereferenceable(120) %this, ptr noundef nonnull align 8 dereferenceable(16) %mat, ptr noundef nonnull align 8 dereferenceable(72) %volume) local_unnamed_addr #2 align 2 {
entry:
  %c.i.i = alloca %class.aiColor4t, align 8
  %call.i.i = tail call noundef i32 @aiGetMaterialFloatArray(ptr noundef nonnull %mat, ptr noundef nonnull @.str.37, i32 noundef 0, i32 noundef 0, ptr noundef nonnull %volume, ptr noundef null)
  %cmp.not = icmp eq i32 %call.i.i, 0
  %thicknessTexture = getelementptr inbounds i8, ptr %volume, i64 8
  %texCoord.i = getelementptr inbounds i8, ptr %volume, i64 28
  tail call void @_ZN6Assimp13glTF2Exporter9GetMatTexERK10aiMaterialRN10glTFCommon3RefIN5glTF27TextureEEERj13aiTextureTypej(ptr noundef nonnull align 8 dereferenceable(120) %this, ptr noundef nonnull align 8 dereferenceable(16) %mat, ptr noundef nonnull align 8 dereferenceable(12) %thicknessTexture, ptr noundef nonnull align 4 dereferenceable(4) %texCoord.i, i32 noundef 21, i32 noundef 1)
  br i1 %cmp.not, label %lor.rhs, label %lor.end15

lor.rhs:                                          ; preds = %entry
  %attenuationDistance = getelementptr inbounds i8, ptr %volume, i64 56
  %call.i.i10 = tail call noundef i32 @aiGetMaterialFloatArray(ptr noundef nonnull %mat, ptr noundef nonnull @.str.38, i32 noundef 0, i32 noundef 0, ptr noundef nonnull %attenuationDistance, ptr noundef null)
  %tobool3.not = icmp eq i32 %call.i.i10, 0
  br i1 %tobool3.not, label %lor.rhs6, label %lor.end15

lor.rhs6:                                         ; preds = %lor.rhs
  call void @llvm.lifetime.start.p0(i64 16, ptr nonnull %c.i.i)
  call void @llvm.memset.p0.i64(ptr noundef nonnull align 8 dereferenceable(16) %c.i.i, i8 0, i64 16, i1 false)
  %call.i.i11 = call i32 @aiGetMaterialColor(ptr noundef nonnull %mat, ptr noundef nonnull @.str.39, i32 noundef 0, i32 noundef 0, ptr noundef nonnull %c.i.i)
  %cmp.i.i = icmp eq i32 %call.i.i11, 0
  br i1 %cmp.i.i, label %lor.rhs12, label %_ZNK6Assimp13glTF2Exporter11GetMatColorERK10aiMaterialRA3_fPKcii.exit.thread

_ZNK6Assimp13glTF2Exporter11GetMatColorERK10aiMaterialRA3_fPKcii.exit.thread: ; preds = %lor.rhs6
  call void @llvm.lifetime.end.p0(i64 16, ptr nonnull %c.i.i)
  br label %lor.end15

lor.rhs12:                                        ; preds = %lor.rhs6
  %attenuationColor = getelementptr inbounds i8, ptr %volume, i64 60
  %b.i5.i = getelementptr inbounds i8, ptr %c.i.i, i64 8
  %0 = load float, ptr %b.i5.i, align 8
  %1 = load <2 x float>, ptr %c.i.i, align 8
  call void @llvm.lifetime.end.p0(i64 16, ptr nonnull %c.i.i)
  store <2 x float> %1, ptr %attenuationColor, align 4
  %arrayidx3.i = getelementptr inbounds i8, ptr %volume, i64 68
  store float %0, ptr %arrayidx3.i, align 4
  %2 = load ptr, ptr %thicknessTexture, align 8
  %cmp.not.i = icmp eq ptr %2, null
  br i1 %cmp.not.i, label %lor.end15, label %land.rhs.i

land.rhs.i:                                       ; preds = %lor.rhs12
  %index.i = getelementptr inbounds i8, ptr %volume, i64 16
  %3 = load i32, ptr %index.i, align 8
  %conv.i = zext i32 %3 to i64
  %_M_finish.i.i = getelementptr inbounds i8, ptr %2, i64 8
  %4 = load ptr, ptr %_M_finish.i.i, align 8
  %5 = load ptr, ptr %2, align 8
  %sub.ptr.lhs.cast.i.i = ptrtoint ptr %4 to i64
  %sub.ptr.rhs.cast.i.i = ptrtoint ptr %5 to i64
  %sub.ptr.sub.i.i = sub i64 %sub.ptr.lhs.cast.i.i, %sub.ptr.rhs.cast.i.i
  %sub.ptr.div.i.i = ashr exact i64 %sub.ptr.sub.i.i, 3
  %cmp3.i = icmp ugt i64 %sub.ptr.div.i.i, %conv.i
  br label %lor.end15

lor.end15:                                        ; preds = %land.rhs.i, %lor.rhs12, %_ZNK6Assimp13glTF2Exporter11GetMatColorERK10aiMaterialRA3_fPKcii.exit.thread, %lor.rhs, %entry
  %6 = phi i1 [ true, %entry ], [ true, %lor.rhs ], [ true, %_ZNK6Assimp13glTF2Exporter11GetMatColorERK10aiMaterialRA3_fPKcii.exit.thread ], [ false, %lor.rhs12 ], [ %cmp3.i, %land.rhs.i ]
  ret i1 %6
}